target datalayout = "e-m:e-p270:32:32-p271:32:32-p272:64:64-i64:64-i128:128-f80:128-n8:16:32:64-S128"
target triple = "x86_64-pc-linux-gnu"

%struct.bitmap_writer = type { ptr, ptr, ptr, ptr, ptr, ptr, ptr, i32, i32, %struct.string_list, ptr, i32, ptr, i32, [32 x i8] }
%struct.string_list = type { ptr, i64, i64, i8, ptr }
%struct.bitmapped_commit = type { ptr, ptr, ptr, i32, i32, i32, i8 }

; Function Attrs: nounwind uwtable
define internal i32 @table_cmp(ptr noundef %0, ptr noundef %1, ptr noundef %2) #0 {
  %4 = alloca i32, align 4
  %5 = alloca ptr, align 8
  %6 = alloca ptr, align 8
  %7 = alloca ptr, align 8
  %8 = alloca ptr, align 8
  %9 = alloca ptr, align 8
  %10 = alloca ptr, align 8
  %11 = alloca i32, align 4
  store ptr %0, ptr %5, align 8, !tbaa !36
  store ptr %1, ptr %6, align 8, !tbaa !36
  store ptr %2, ptr %7, align 8, !tbaa !36
  call void @llvm.lifetime.start.p0(i64 8, ptr %8) #12
  %12 = load ptr, ptr %7, align 8, !tbaa !36
  store ptr %12, ptr %8, align 8, !tbaa !4
  call void @llvm.lifetime.start.p0(i64 8, ptr %9) #12
  %13 = load ptr, ptr %8, align 8, !tbaa !4
  %14 = getelementptr inbounds nuw %struct.bitmap_writer, ptr %13, i32 0, i32 6
  %15 = load ptr, ptr %14, align 8, !tbaa !42
  %16 = load ptr, ptr %5, align 8, !tbaa !36
  %17 = load i32, ptr %16, align 4, !tbaa !29
  %18 = zext i32 %17 to i64
  %19 = getelementptr inbounds nuw %struct.bitmapped_commit, ptr %15, i64 %18
  store ptr %19, ptr %9, align 8, !tbaa !43
  call void @llvm.lifetime.start.p0(i64 8, ptr %10) #12
  %20 = load ptr, ptr %8, align 8, !tbaa !4
  %21 = getelementptr inbounds nuw %struct.bitmap_writer, ptr %20, i32 0, i32 6
  %22 = load ptr, ptr %21, align 8, !tbaa !42
  %23 = load ptr, ptr %6, align 8, !tbaa !36
  %24 = load i32, ptr %23, align 4, !tbaa !29
  %25 = zext i32 %24 to i64
  %26 = getelementptr inbounds nuw %struct.bitmapped_commit, ptr %22, i64 %25
  store ptr %26, ptr %10, align 8, !tbaa !43
  %27 = load ptr, ptr %9, align 8, !tbaa !43
  %28 = getelementptr inbounds nuw %struct.bitmapped_commit, ptr %27, i32 0, i32 5
  %29 = load i32, ptr %28, align 8, !tbaa !176
  %30 = load ptr, ptr %10, align 8, !tbaa !43
  %31 = getelementptr inbounds nuw %struct.bitmapped_commit, ptr %30, i32 0, i32 5
  %32 = load i32, ptr %31, align 8, !tbaa !176
  %33 = icmp ult i32 %29, %32
  br i1 %33, label %34, label %35

34:                                               ; preds = %3
  store i32 -1, ptr %4, align 4
  store i32 1, ptr %11, align 4
  br label %46

35:                                               ; preds = %3
  %36 = load ptr, ptr %9, align 8, !tbaa !43
  %37 = getelementptr inbounds nuw %struct.bitmapped_commit, ptr %36, i32 0, i32 5
  %38 = load i32, ptr %37, align 8, !tbaa !176
  %39 = load ptr, ptr %10, align 8, !tbaa !43
  %40 = getelementptr inbounds nuw %struct.bitmapped_commit, ptr %39, i32 0, i32 5
  %41 = load i32, ptr %40, align 8, !tbaa !176
  %42 = icmp ugt i32 %38, %41
  br i1 %42, label %43, label %44

43:                                               ; preds = %35
  store i32 1, ptr %4, align 4
  store i32 1, ptr %11, align 4
  br label %46

44:                                               ; preds = %35
  br label %45

45:                                               ; preds = %44
  store i32 0, ptr %4, align 4
  store i32 1, ptr %11, align 4
  br label %46

46:                                               ; preds = %45, %43, %34
  call void @llvm.lifetime.end.p0(i64 8, ptr %10) #12
  call void @llvm.lifetime.end.p0(i64 8, ptr %9) #12
  call void @llvm.lifetime.end.p0(i64 8, ptr %8) #12
  %47 = load i32, ptr %4, align 4
  ret i32 %47
}