; Function Attrs: mustprogress nofree norecurse nosync nounwind willreturn memory(read, inaccessiblemem: none) uwtable
define internal range(i32 -1, 2) i32 @table_cmp(ptr noundef readonly captures(none) %0, ptr noundef readonly captures(none) %1, ptr noundef readonly captures(none) %2) #10 {
  %4 = getelementptr inbounds nuw i8, ptr %2, i64 48
  %5 = load ptr, ptr %4, align 8, !tbaa !38
  %6 = load i32, ptr %0, align 4, !tbaa !31
  %7 = zext i32 %6 to i64
  %8 = load i32, ptr %1, align 4, !tbaa !31
  %9 = zext i32 %8 to i64
  %10 = getelementptr inbounds nuw %struct.bitmapped_commit, ptr %5, i64 %7, i32 5
  %11 = load i32, ptr %10, align 8, !tbaa !156
  %12 = getelementptr inbounds nuw %struct.bitmapped_commit, ptr %5, i64 %9, i32 5
  %13 = load i32, ptr %12, align 8, !tbaa !156
  %.0 = tail call i32 @llvm.ucmp.i32.i32(i32 %11, i32 %13)
  ret i32 %.0
}